; Function Attrs: mustprogress uwtable
define hidden noundef nonnull align 8 dereferenceable(8) ptr @_ZNK3euf9ac_plugin14display_statusERSoNS0_9eq_statusE(ptr noundef nonnull readnone align 8 captures(none) dereferenceable(432) %0, ptr noundef nonnull returned align 8 dereferenceable(8) %1, i32 noundef %2) local_unnamed_addr #3 align 2 {
  %4 = icmp ult i32 %2, 3
  br i1 %4, label %switch.lookup, label %7

switch.lookup:                                    ; preds = %3
  %5 = zext nneg i32 %2 to i64
  %switch.gep = getelementptr inbounds nuw [3 x ptr], ptr @switch.table._ZNK3euf9ac_plugin14display_statusERSoNS0_9eq_statusE, i64 0, i64 %5
  %switch.load = load ptr, ptr %switch.gep, align 8
  %6 = tail call noundef nonnull align 8 dereferenceable(8) ptr @_ZSt16__ostream_insertIcSt11char_traitsIcEERSt13basic_ostreamIT_T0_ES6_PKS3_l(ptr noundef nonnull align 8 dereferenceable(8) %1, ptr noundef nonnull %switch.load, i64 noundef 1)
  br label %7

7:                                                ; preds = %3, %switch.lookup
  ret ptr %1
}